target datalayout = "e-m:e-p270:32:32-p271:32:32-p272:64:64-i64:64-i128:128-f80:128-n8:16:32:64-S128"
target triple = "x86_64-unknown-linux-gnu"

%"class.std::unique_ptr.10" = type { %"struct.std::__uniq_ptr_data.11" }
%"struct.std::__uniq_ptr_data.11" = type { %"class.std::__uniq_ptr_impl.12" }
%"class.std::__uniq_ptr_impl.12" = type { %"class.std::tuple.13" }
%"class.std::tuple.13" = type { %"struct.std::_Tuple_impl.14" }
%"struct.std::_Tuple_impl.14" = type { %"struct.std::_Head_base.17" }
%"struct.std::_Head_base.17" = type { ptr }

; Function Attrs: mustprogress nounwind uwtable
define linkonce_odr dso_local noundef nonnull align 8 dereferenceable(8) ptr @_ZNSt10_Head_baseILm0EP6ssl_stLb0EE7_M_headERKS2_(ptr noundef nonnull align 8 dereferenceable(8) %__b) #4 comdat align 2 {
entry:
  %__b.addr = alloca ptr, align 8
  store ptr %__b, ptr %__b.addr, align 8
  %0 = load ptr, ptr %__b.addr, align 8
  %_M_head_impl = getelementptr inbounds %"struct.std::_Head_base.17", ptr %0, i32 0, i32 0
  ret ptr %_M_head_impl
}

; Function Attrs: mustprogress nounwind uwtable
define linkonce_odr dso_local noundef nonnull align 8 dereferenceable(8) ptr @_ZNSt11_Tuple_implILm0EJP6ssl_stN4node15FunctionDeleterIS0_XadL_Z8SSL_freeEEEEEE7_M_headERKS5_(ptr noundef nonnull align 8 dereferenceable(8) %__t) #4 comdat align 2 {
entry:
  %__t.addr = alloca ptr, align 8
  store ptr %__t, ptr %__t.addr, align 8
  %0 = load ptr, ptr %__t.addr, align 8
  %call = call noundef nonnull align 8 dereferenceable(8) ptr @_ZNSt10_Head_baseILm0EP6ssl_stLb0EE7_M_headERKS2_(ptr noundef nonnull align 8 dereferenceable(8) %0) #3
  ret ptr %call
}

; Function Attrs: mustprogress nounwind uwtable
define linkonce_odr dso_local noundef nonnull align 8 dereferenceable(8) ptr @_ZSt12__get_helperILm0EP6ssl_stJN4node15FunctionDeleterIS0_XadL_Z8SSL_freeEEEEEERKT0_RKSt11_Tuple_implIXT_EJS5_DpT1_EE(ptr noundef nonnull align 8 dereferenceable(8) %__t) #4 comdat {
entry:
  %__t.addr = alloca ptr, align 8
  store ptr %__t, ptr %__t.addr, align 8
  %0 = load ptr, ptr %__t.addr, align 8
  %call = call noundef nonnull align 8 dereferenceable(8) ptr @_ZNSt11_Tuple_implILm0EJP6ssl_stN4node15FunctionDeleterIS0_XadL_Z8SSL_freeEEEEEE7_M_headERKS5_(ptr noundef nonnull align 8 dereferenceable(8) %0) #3
  ret ptr %call
}

; Function Attrs: mustprogress nounwind uwtable
define linkonce_odr dso_local noundef nonnull align 8 dereferenceable(8) ptr @_ZSt3getILm0EJP6ssl_stN4node15FunctionDeleterIS0_XadL_Z8SSL_freeEEEEEERKNSt13tuple_elementIXT_ESt5tupleIJDpT0_EEE4typeERKS9_(ptr noundef nonnull align 8 dereferenceable(8) %__t) #4 comdat {
entry:
  %__t.addr = alloca ptr, align 8
  store ptr %__t, ptr %__t.addr, align 8
  %0 = load ptr, ptr %__t.addr, align 8
  %call = call noundef nonnull align 8 dereferenceable(8) ptr @_ZSt12__get_helperILm0EP6ssl_stJN4node15FunctionDeleterIS0_XadL_Z8SSL_freeEEEEEERKT0_RKSt11_Tuple_implIXT_EJS5_DpT1_EE(ptr noundef nonnull align 8 dereferenceable(8) %0) #3
  ret ptr %call
}

; Function Attrs: mustprogress nounwind uwtable
define linkonce_odr dso_local noundef ptr @_ZNKSt15__uniq_ptr_implI6ssl_stN4node15FunctionDeleterIS0_XadL_Z8SSL_freeEEEEE6_M_ptrEv(ptr noundef nonnull align 8 dereferenceable(8) %this) #4 comdat align 2 {
entry:
  %this.addr = alloca ptr, align 8
  store ptr %this, ptr %this.addr, align 8
  %this1 = load ptr, ptr %this.addr, align 8
  %_M_t = getelementptr inbounds %"class.std::__uniq_ptr_impl.12", ptr %this1, i32 0, i32 0
  %call = call noundef nonnull align 8 dereferenceable(8) ptr @_ZSt3getILm0EJP6ssl_stN4node15FunctionDeleterIS0_XadL_Z8SSL_freeEEEEEERKNSt13tuple_elementIXT_ESt5tupleIJDpT0_EEE4typeERKS9_(ptr noundef nonnull align 8 dereferenceable(8) %_M_t) #3
  %0 = load ptr, ptr %call, align 8
  ret ptr %0
}

; Function Attrs: mustprogress nounwind uwtable
define linkonce_odr dso_local noundef ptr @_ZNKSt10unique_ptrI6ssl_stN4node15FunctionDeleterIS0_XadL_Z8SSL_freeEEEEE3getEv(ptr noundef nonnull align 8 dereferenceable(8) %this) #4 comdat align 2 {
entry:
  %this.addr = alloca ptr, align 8
  store ptr %this, ptr %this.addr, align 8
  %this1 = load ptr, ptr %this.addr, align 8
  %_M_t = getelementptr inbounds %"class.std::unique_ptr.10", ptr %this1, i32 0, i32 0
  %call = call noundef ptr @_ZNKSt15__uniq_ptr_implI6ssl_stN4node15FunctionDeleterIS0_XadL_Z8SSL_freeEEEEE6_M_ptrEv(ptr noundef nonnull align 8 dereferenceable(8) %_M_t) #3
  ret ptr %call
}

; Function Attrs: mustprogress nounwind uwtable
define dso_local noundef ptr @_ZN4node6crypto24GetClientHelloServerNameERKSt10unique_ptrI6ssl_stNS_15FunctionDeleterIS2_XadL_Z8SSL_freeEEEEE(ptr noundef nonnull align 8 dereferenceable(8) %ssl) #4 {
entry:
  %retval = alloca ptr, align 8
  %ssl.addr = alloca ptr, align 8
  %buf = alloca ptr, align 8
  %len = alloca i64, align 8
  %rem = alloca i64, align 8
  store ptr %ssl, ptr %ssl.addr, align 8
  %0 = load ptr, ptr %ssl.addr, align 8
  %call = call noundef ptr @_ZNKSt10unique_ptrI6ssl_stN4node15FunctionDeleterIS0_XadL_Z8SSL_freeEEEEE3getEv(ptr noundef nonnull align 8 dereferenceable(8) %0) #3
  %call1 = call i32 @SSL_client_hello_get0_ext(ptr noundef %call, i32 noundef 0, ptr noundef %buf, ptr noundef %rem)
  %tobool = icmp ne i32 %call1, 0
  br i1 %tobool, label %lor.lhs.false, label %if.then

lor.lhs.false:                                    ; preds = %entry
  %1 = load i64, ptr %rem, align 8
  %cmp = icmp ule i64 %1, 2
  br i1 %cmp, label %if.then, label %if.end

if.then:                                          ; preds = %lor.lhs.false, %entry
  store ptr null, ptr %retval, align 8
  br label %return

if.end:                                           ; preds = %lor.lhs.false
  %2 = load ptr, ptr %buf, align 8
  %3 = load i8, ptr %2, align 1
  %conv = zext i8 %3 to i32
  %shl = shl i32 %conv, 8
  %4 = load ptr, ptr %buf, align 8
  %add.ptr = getelementptr inbounds i8, ptr %4, i64 1
  %5 = load i8, ptr %add.ptr, align 1
  %conv2 = zext i8 %5 to i32
  %or = or i32 %shl, %conv2
  %conv3 = sext i32 %or to i64
  store i64 %conv3, ptr %len, align 8
  %6 = load i64, ptr %len, align 8
  %add = add i64 %6, 2
  %7 = load i64, ptr %rem, align 8
  %cmp4 = icmp ne i64 %add, %7
  br i1 %cmp4, label %if.then5, label %if.end6

if.then5:                                         ; preds = %if.end
  store ptr null, ptr %retval, align 8
  br label %return

if.end6:                                          ; preds = %if.end
  %8 = load i64, ptr %len, align 8
  store i64 %8, ptr %rem, align 8
  %9 = load i64, ptr %rem, align 8
  %cmp7 = icmp eq i64 %9, 0
  br i1 %cmp7, label %if.then12, label %lor.lhs.false8

lor.lhs.false8:                                   ; preds = %if.end6
  %10 = load ptr, ptr %buf, align 8
  %add.ptr9 = getelementptr inbounds i8, ptr %10, i64 2
  %11 = load i8, ptr %add.ptr9, align 1
  %conv10 = zext i8 %11 to i32
  %cmp11 = icmp ne i32 %conv10, 0
  br i1 %cmp11, label %if.then12, label %if.end13

if.then12:                                        ; preds = %lor.lhs.false8, %if.end6
  store ptr null, ptr %retval, align 8
  br label %return

if.end13:                                         ; preds = %lor.lhs.false8
  %12 = load i64, ptr %rem, align 8
  %dec = add i64 %12, -1
  store i64 %dec, ptr %rem, align 8
  %13 = load i64, ptr %rem, align 8
  %cmp14 = icmp ule i64 %13, 2
  br i1 %cmp14, label %if.then15, label %if.end16

if.then15:                                        ; preds = %if.end13
  store ptr null, ptr %retval, align 8
  br label %return

if.end16:                                         ; preds = %if.end13
  %14 = load ptr, ptr %buf, align 8
  %add.ptr17 = getelementptr inbounds i8, ptr %14, i64 3
  %15 = load i8, ptr %add.ptr17, align 1
  %conv18 = zext i8 %15 to i32
  %shl19 = shl i32 %conv18, 8
  %16 = load ptr, ptr %buf, align 8
  %add.ptr20 = getelementptr inbounds i8, ptr %16, i64 4
  %17 = load i8, ptr %add.ptr20, align 1
  %conv21 = zext i8 %17 to i32
  %or22 = or i32 %shl19, %conv21
  %conv23 = sext i32 %or22 to i64
  store i64 %conv23, ptr %len, align 8
  %18 = load i64, ptr %len, align 8
  %add24 = add i64 %18, 2
  %19 = load i64, ptr %rem, align 8
  %cmp25 = icmp ugt i64 %add24, %19
  br i1 %cmp25, label %if.then26, label %if.end27

if.then26:                                        ; preds = %if.end16
  store ptr null, ptr %retval, align 8
  br label %return

if.end27:                                         ; preds = %if.end16
  %20 = load ptr, ptr %buf, align 8
  %add.ptr28 = getelementptr inbounds i8, ptr %20, i64 5
  store ptr %add.ptr28, ptr %retval, align 8
  br label %return

return:                                           ; preds = %if.end27, %if.then26, %if.then15, %if.then12, %if.then5, %if.then
  %21 = load ptr, ptr %retval, align 8
  ret ptr %21
}