; Function Attrs: mustprogress nounwind uwtable
define dso_local noundef ptr @_ZN4node6crypto24GetClientHelloServerNameERKSt10unique_ptrI6ssl_stNS_15FunctionDeleterIS2_XadL_Z8SSL_freeEEEEE(ptr nocapture noundef nonnull readonly align 8 dereferenceable(8) %ssl) local_unnamed_addr #3 {
entry:
  %buf = alloca ptr, align 8
  %rem = alloca i64, align 8
  %0 = load ptr, ptr %ssl, align 8
  %call1 = call i32 @SSL_client_hello_get0_ext(ptr noundef %0, i32 noundef 0, ptr noundef nonnull %buf, ptr noundef nonnull %rem) #17
  %tobool = icmp eq i32 %call1, 0
  %1 = load i64, ptr %rem, align 8
  %cmp = icmp ult i64 %1, 3
  %or.cond = select i1 %tobool, i1 true, i1 %cmp
  br i1 %or.cond, label %return, label %if.end

if.end:                                           ; preds = %entry
  %2 = load ptr, ptr %buf, align 8
  %3 = load i8, ptr %2, align 1
  %conv = zext i8 %3 to i64
  %shl = shl nuw nsw i64 %conv, 8
  %add.ptr = getelementptr inbounds i8, ptr %2, i64 1
  %4 = load i8, ptr %add.ptr, align 1
  %conv2 = zext i8 %4 to i64
  %or = or disjoint i64 %shl, %conv2
  %add = add nuw nsw i64 %or, 2
  %cmp4.not = icmp eq i64 %add, %1
  br i1 %cmp4.not, label %lor.lhs.false8, label %return

lor.lhs.false8:                                   ; preds = %if.end
  store i64 %or, ptr %rem, align 8
  %add.ptr9 = getelementptr inbounds i8, ptr %2, i64 2
  %5 = load i8, ptr %add.ptr9, align 1
  %cmp11.not = icmp eq i8 %5, 0
  br i1 %cmp11.not, label %if.end13, label %return

if.end13:                                         ; preds = %lor.lhs.false8
  %dec = add nsw i64 %or, -1
  store i64 %dec, ptr %rem, align 8
  %cmp14 = icmp ult i64 %or, 4
  br i1 %cmp14, label %return, label %if.end16

if.end16:                                         ; preds = %if.end13
  %add.ptr17 = getelementptr inbounds i8, ptr %2, i64 3
  %6 = load i8, ptr %add.ptr17, align 1
  %conv18 = zext i8 %6 to i64
  %shl19 = shl nuw nsw i64 %conv18, 8
  %add.ptr20 = getelementptr inbounds i8, ptr %2, i64 4
  %7 = load i8, ptr %add.ptr20, align 1
  %conv21 = zext i8 %7 to i64
  %or22 = or disjoint i64 %shl19, %conv21
  %add24 = add nuw nsw i64 %or22, 2
  %cmp25 = icmp ugt i64 %add24, %dec
  %add.ptr28 = getelementptr inbounds i8, ptr %2, i64 5
  %spec.select = select i1 %cmp25, ptr null, ptr %add.ptr28
  br label %return

return:                                           ; preds = %if.end16, %if.end13, %lor.lhs.false8, %if.end, %entry
  %retval.0 = phi ptr [ null, %entry ], [ null, %if.end ], [ null, %lor.lhs.false8 ], [ null, %if.end13 ], [ %spec.select, %if.end16 ]
  ret ptr %retval.0
}